target datalayout = "e-m:e-p270:32:32-p271:32:32-p272:64:64-i64:64-i128:128-f80:128-n8:16:32:64-S128"
target triple = "x86_64-pc-linux-gnu"

; Function Attrs: nounwind uwtable
define internal i32 @make_decode_table(i32 noundef %0, i32 noundef %1, ptr noundef %2, ptr noundef %3) #0 {
  %5 = alloca i32, align 4
  %6 = alloca i32, align 4
  %7 = alloca i32, align 4
  %8 = alloca ptr, align 8
  %9 = alloca ptr, align 8
  %10 = alloca i16, align 2
  %11 = alloca i16, align 2
  %12 = alloca i32, align 4
  %13 = alloca i32, align 4
  %14 = alloca i32, align 4
  %15 = alloca i8, align 1
  %16 = alloca i32, align 4
  %17 = alloca i32, align 4
  %18 = alloca i32, align 4
  %19 = alloca i32, align 4
  store i32 %0, ptr %6, align 4, !tbaa !10
  store i32 %1, ptr %7, align 4, !tbaa !10
  store ptr %2, ptr %8, align 8, !tbaa !38
  store ptr %3, ptr %9, align 8, !tbaa !46
  call void @llvm.lifetime.start.p0(i64 2, ptr %10) #2
  call void @llvm.lifetime.start.p0(i64 2, ptr %11) #2
  call void @llvm.lifetime.start.p0(i64 4, ptr %12) #2
  call void @llvm.lifetime.start.p0(i64 4, ptr %13) #2
  call void @llvm.lifetime.start.p0(i64 4, ptr %14) #2
  call void @llvm.lifetime.start.p0(i64 1, ptr %15) #2
  call void @llvm.lifetime.start.p0(i64 4, ptr %16) #2
  store i32 0, ptr %16, align 4, !tbaa !10
  call void @llvm.lifetime.start.p0(i64 4, ptr %17) #2
  %20 = load i32, ptr %7, align 4, !tbaa !10
  %21 = shl i32 1, %20
  store i32 %21, ptr %17, align 4, !tbaa !10
  call void @llvm.lifetime.start.p0(i64 4, ptr %18) #2
  %22 = load i32, ptr %17, align 4, !tbaa !10
  %23 = lshr i32 %22, 1
  store i32 %23, ptr %18, align 4, !tbaa !10
  store i8 1, ptr %15, align 1, !tbaa !39
  br label %24

24:                                               ; preds = %105, %4
  %25 = load i8, ptr %15, align 1, !tbaa !39
  %26 = zext i8 %25 to i32
  %27 = load i32, ptr %7, align 4, !tbaa !10
  %28 = icmp ule i32 %26, %27
  br i1 %28, label %29, label %108

29:                                               ; preds = %24
  store i16 0, ptr %10, align 2, !tbaa !44
  br label %30

30:                                               ; preds = %99, %29
  %31 = load i16, ptr %10, align 2, !tbaa !44
  %32 = zext i16 %31 to i32
  %33 = load i32, ptr %6, align 4, !tbaa !10
  %34 = icmp ult i32 %32, %33
  br i1 %34, label %35, label %102

35:                                               ; preds = %30
  %36 = load ptr, ptr %8, align 8, !tbaa !38
  %37 = load i16, ptr %10, align 2, !tbaa !44
  %38 = zext i16 %37 to i64
  %39 = getelementptr inbounds nuw i8, ptr %36, i64 %38
  %40 = load i8, ptr %39, align 1, !tbaa !39
  %41 = zext i8 %40 to i32
  %42 = load i8, ptr %15, align 1, !tbaa !39
  %43 = zext i8 %42 to i32
  %44 = icmp ne i32 %41, %43
  br i1 %44, label %45, label %46

45:                                               ; preds = %35
  br label %99

46:                                               ; preds = %35
  %47 = load ptr, ptr %8, align 8, !tbaa !38
  %48 = load i16, ptr %10, align 2, !tbaa !44
  %49 = zext i16 %48 to i64
  %50 = getelementptr inbounds nuw i8, ptr %47, i64 %49
  %51 = load i8, ptr %50, align 1, !tbaa !39
  %52 = zext i8 %51 to i32
  store i32 %52, ptr %13, align 4, !tbaa !10
  %53 = load i32, ptr %16, align 4, !tbaa !10
  %54 = load i32, ptr %7, align 4, !tbaa !10
  %55 = load i32, ptr %13, align 4, !tbaa !10
  %56 = sub i32 %54, %55
  %57 = lshr i32 %53, %56
  store i32 %57, ptr %14, align 4, !tbaa !10
  store i32 0, ptr %12, align 4, !tbaa !10
  br label %58

58:                                               ; preds = %67, %46
  %59 = load i32, ptr %12, align 4, !tbaa !10
  %60 = shl i32 %59, 1
  store i32 %60, ptr %12, align 4, !tbaa !10
  %61 = load i32, ptr %14, align 4, !tbaa !10
  %62 = and i32 %61, 1
  %63 = load i32, ptr %12, align 4, !tbaa !10
  %64 = or i32 %63, %62
  store i32 %64, ptr %12, align 4, !tbaa !10
  %65 = load i32, ptr %14, align 4, !tbaa !10
  %66 = lshr i32 %65, 1
  store i32 %66, ptr %14, align 4, !tbaa !10
  br label %67

67:                                               ; preds = %58
  %68 = load i32, ptr %13, align 4, !tbaa !10
  %69 = add i32 %68, -1
  store i32 %69, ptr %13, align 4, !tbaa !10
  %70 = icmp ne i32 %69, 0
  br i1 %70, label %58, label %71

71:                                               ; preds = %67
  %72 = load i32, ptr %18, align 4, !tbaa !10
  %73 = load i32, ptr %16, align 4, !tbaa !10
  %74 = add i32 %73, %72
  store i32 %74, ptr %16, align 4, !tbaa !10
  %75 = load i32, ptr %17, align 4, !tbaa !10
  %76 = icmp ugt i32 %74, %75
  br i1 %76, label %77, label %78

77:                                               ; preds = %71
  store i32 1, ptr %5, align 4
  store i32 1, ptr %19, align 4
  br label %289

78:                                               ; preds = %71
  %79 = load i32, ptr %18, align 4, !tbaa !10
  store i32 %79, ptr %13, align 4, !tbaa !10
  %80 = load i8, ptr %15, align 1, !tbaa !39
  %81 = zext i8 %80 to i32
  %82 = shl i32 1, %81
  %83 = trunc i32 %82 to i16
  store i16 %83, ptr %11, align 2, !tbaa !44
  br label %84

84:                                               ; preds = %94, %78
  %85 = load i16, ptr %10, align 2, !tbaa !44
  %86 = load ptr, ptr %9, align 8, !tbaa !46
  %87 = load i32, ptr %12, align 4, !tbaa !10
  %88 = zext i32 %87 to i64
  %89 = getelementptr inbounds nuw i16, ptr %86, i64 %88
  store i16 %85, ptr %89, align 2, !tbaa !44
  %90 = load i16, ptr %11, align 2, !tbaa !44
  %91 = zext i16 %90 to i32
  %92 = load i32, ptr %12, align 4, !tbaa !10
  %93 = add i32 %92, %91
  store i32 %93, ptr %12, align 4, !tbaa !10
  br label %94

94:                                               ; preds = %84
  %95 = load i32, ptr %13, align 4, !tbaa !10
  %96 = add i32 %95, -1
  store i32 %96, ptr %13, align 4, !tbaa !10
  %97 = icmp ne i32 %96, 0
  br i1 %97, label %84, label %98

98:                                               ; preds = %94
  br label %99

99:                                               ; preds = %98, %45
  %100 = load i16, ptr %10, align 2, !tbaa !44
  %101 = add i16 %100, 1
  store i16 %101, ptr %10, align 2, !tbaa !44
  br label %30

102:                                              ; preds = %30
  %103 = load i32, ptr %18, align 4, !tbaa !10
  %104 = lshr i32 %103, 1
  store i32 %104, ptr %18, align 4, !tbaa !10
  br label %105

105:                                              ; preds = %102
  %106 = load i8, ptr %15, align 1, !tbaa !39
  %107 = add i8 %106, 1
  store i8 %107, ptr %15, align 1, !tbaa !39
  br label %24

108:                                              ; preds = %24
  %109 = load i32, ptr %16, align 4, !tbaa !10
  %110 = load i32, ptr %17, align 4, !tbaa !10
  %111 = icmp eq i32 %109, %110
  br i1 %111, label %112, label %113

112:                                              ; preds = %108
  store i32 0, ptr %5, align 4
  store i32 1, ptr %19, align 4
  br label %289

113:                                              ; preds = %108
  %114 = load i32, ptr %16, align 4, !tbaa !10
  %115 = trunc i32 %114 to i16
  store i16 %115, ptr %10, align 2, !tbaa !44
  br label %116

116:                                              ; preds = %143, %113
  %117 = load i16, ptr %10, align 2, !tbaa !44
  %118 = zext i16 %117 to i32
  %119 = load i32, ptr %17, align 4, !tbaa !10
  %120 = icmp ult i32 %118, %119
  br i1 %120, label %121, label %146

121:                                              ; preds = %116
  %122 = load i16, ptr %10, align 2, !tbaa !44
  %123 = zext i16 %122 to i32
  store i32 %123, ptr %14, align 4, !tbaa !10
  store i32 0, ptr %12, align 4, !tbaa !10
  %124 = load i32, ptr %7, align 4, !tbaa !10
  store i32 %124, ptr %13, align 4, !tbaa !10
  br label %125

125:                                              ; preds = %134, %121
  %126 = load i32, ptr %12, align 4, !tbaa !10
  %127 = shl i32 %126, 1
  store i32 %127, ptr %12, align 4, !tbaa !10
  %128 = load i32, ptr %14, align 4, !tbaa !10
  %129 = and i32 %128, 1
  %130 = load i32, ptr %12, align 4, !tbaa !10
  %131 = or i32 %130, %129
  store i32 %131, ptr %12, align 4, !tbaa !10
  %132 = load i32, ptr %14, align 4, !tbaa !10
  %133 = lshr i32 %132, 1
  store i32 %133, ptr %14, align 4, !tbaa !10
  br label %134

134:                                              ; preds = %125
  %135 = load i32, ptr %13, align 4, !tbaa !10
  %136 = add i32 %135, -1
  store i32 %136, ptr %13, align 4, !tbaa !10
  %137 = icmp ne i32 %136, 0
  br i1 %137, label %125, label %138

138:                                              ; preds = %134
  %139 = load ptr, ptr %9, align 8, !tbaa !46
  %140 = load i32, ptr %12, align 4, !tbaa !10
  %141 = zext i32 %140 to i64
  %142 = getelementptr inbounds nuw i16, ptr %139, i64 %141
  store i16 -1, ptr %142, align 2, !tbaa !44
  br label %143

143:                                              ; preds = %138
  %144 = load i16, ptr %10, align 2, !tbaa !44
  %145 = add i16 %144, 1
  store i16 %145, ptr %10, align 2, !tbaa !44
  br label %116

146:                                              ; preds = %116
  %147 = load i32, ptr %17, align 4, !tbaa !10
  %148 = lshr i32 %147, 1
  %149 = load i32, ptr %6, align 4, !tbaa !10
  %150 = icmp ult i32 %148, %149
  br i1 %150, label %151, label %153

151:                                              ; preds = %146
  %152 = load i32, ptr %6, align 4, !tbaa !10
  br label %156

153:                                              ; preds = %146
  %154 = load i32, ptr %17, align 4, !tbaa !10
  %155 = lshr i32 %154, 1
  br label %156

156:                                              ; preds = %153, %151
  %157 = phi i32 [ %152, %151 ], [ %155, %153 ]
  %158 = trunc i32 %157 to i16
  store i16 %158, ptr %11, align 2, !tbaa !44
  %159 = load i32, ptr %16, align 4, !tbaa !10
  %160 = shl i32 %159, 16
  store i32 %160, ptr %16, align 4, !tbaa !10
  %161 = load i32, ptr %17, align 4, !tbaa !10
  %162 = shl i32 %161, 16
  store i32 %162, ptr %17, align 4, !tbaa !10
  store i32 32768, ptr %18, align 4, !tbaa !10
  %163 = load i32, ptr %7, align 4, !tbaa !10
  %164 = add i32 %163, 1
  %165 = trunc i32 %164 to i8
  store i8 %165, ptr %15, align 1, !tbaa !39
  br label %166

166:                                              ; preds = %281, %156
  %167 = load i8, ptr %15, align 1, !tbaa !39
  %168 = zext i8 %167 to i32
  %169 = icmp sle i32 %168, 16
  br i1 %169, label %170, label %284

170:                                              ; preds = %166
  store i16 0, ptr %10, align 2, !tbaa !44
  br label %171

171:                                              ; preds = %275, %170
  %172 = load i16, ptr %10, align 2, !tbaa !44
  %173 = zext i16 %172 to i32
  %174 = load i32, ptr %6, align 4, !tbaa !10
  %175 = icmp ult i32 %173, %174
  br i1 %175, label %176, label %278

176:                                              ; preds = %171
  %177 = load ptr, ptr %8, align 8, !tbaa !38
  %178 = load i16, ptr %10, align 2, !tbaa !44
  %179 = zext i16 %178 to i64
  %180 = getelementptr inbounds nuw i8, ptr %177, i64 %179
  %181 = load i8, ptr %180, align 1, !tbaa !39
  %182 = zext i8 %181 to i32
  %183 = load i8, ptr %15, align 1, !tbaa !39
  %184 = zext i8 %183 to i32
  %185 = icmp ne i32 %182, %184
  br i1 %185, label %186, label %187

186:                                              ; preds = %176
  br label %275

187:                                              ; preds = %176
  %188 = load i32, ptr %16, align 4, !tbaa !10
  %189 = load i32, ptr %17, align 4, !tbaa !10
  %190 = icmp uge i32 %188, %189
  br i1 %190, label %191, label %192

191:                                              ; preds = %187
  store i32 1, ptr %5, align 4
  store i32 1, ptr %19, align 4
  br label %289

192:                                              ; preds = %187
  %193 = load i32, ptr %16, align 4, !tbaa !10
  %194 = lshr i32 %193, 16
  store i32 %194, ptr %14, align 4, !tbaa !10
  store i32 0, ptr %12, align 4, !tbaa !10
  %195 = load i32, ptr %7, align 4, !tbaa !10
  store i32 %195, ptr %13, align 4, !tbaa !10
  br label %196

196:                                              ; preds = %205, %192
  %197 = load i32, ptr %12, align 4, !tbaa !10
  %198 = shl i32 %197, 1
  store i32 %198, ptr %12, align 4, !tbaa !10
  %199 = load i32, ptr %14, align 4, !tbaa !10
  %200 = and i32 %199, 1
  %201 = load i32, ptr %12, align 4, !tbaa !10
  %202 = or i32 %201, %200
  store i32 %202, ptr %12, align 4, !tbaa !10
  %203 = load i32, ptr %14, align 4, !tbaa !10
  %204 = lshr i32 %203, 1
  store i32 %204, ptr %14, align 4, !tbaa !10
  br label %205

205:                                              ; preds = %196
  %206 = load i32, ptr %13, align 4, !tbaa !10
  %207 = add i32 %206, -1
  store i32 %207, ptr %13, align 4, !tbaa !10
  %208 = icmp ne i32 %207, 0
  br i1 %208, label %196, label %209

209:                                              ; preds = %205
  store i32 0, ptr %13, align 4, !tbaa !10
  br label %210

210:                                              ; preds = %263, %209
  %211 = load i32, ptr %13, align 4, !tbaa !10
  %212 = load i8, ptr %15, align 1, !tbaa !39
  %213 = zext i8 %212 to i32
  %214 = load i32, ptr %7, align 4, !tbaa !10
  %215 = sub i32 %213, %214
  %216 = icmp ult i32 %211, %215
  br i1 %216, label %217, label %266

217:                                              ; preds = %210
  %218 = load ptr, ptr %9, align 8, !tbaa !46
  %219 = load i32, ptr %12, align 4, !tbaa !10
  %220 = zext i32 %219 to i64
  %221 = getelementptr inbounds nuw i16, ptr %218, i64 %220
  %222 = load i16, ptr %221, align 2, !tbaa !44
  %223 = zext i16 %222 to i32
  %224 = icmp eq i32 %223, 65535
  br i1 %224, label %225, label %245

225:                                              ; preds = %217
  %226 = load ptr, ptr %9, align 8, !tbaa !46
  %227 = load i16, ptr %11, align 2, !tbaa !44
  %228 = zext i16 %227 to i32
  %229 = shl i32 %228, 1
  %230 = sext i32 %229 to i64
  %231 = getelementptr inbounds i16, ptr %226, i64 %230
  store i16 -1, ptr %231, align 2, !tbaa !44
  %232 = load ptr, ptr %9, align 8, !tbaa !46
  %233 = load i16, ptr %11, align 2, !tbaa !44
  %234 = zext i16 %233 to i32
  %235 = shl i32 %234, 1
  %236 = add nsw i32 %235, 1
  %237 = sext i32 %236 to i64
  %238 = getelementptr inbounds i16, ptr %232, i64 %237
  store i16 -1, ptr %238, align 2, !tbaa !44
  %239 = load i16, ptr %11, align 2, !tbaa !44
  %240 = add i16 %239, 1
  store i16 %240, ptr %11, align 2, !tbaa !44
  %241 = load ptr, ptr %9, align 8, !tbaa !46
  %242 = load i32, ptr %12, align 4, !tbaa !10
  %243 = zext i32 %242 to i64
  %244 = getelementptr inbounds nuw i16, ptr %241, i64 %243
  store i16 %239, ptr %244, align 2, !tbaa !44
  br label %245

245:                                              ; preds = %225, %217
  %246 = load ptr, ptr %9, align 8, !tbaa !46
  %247 = load i32, ptr %12, align 4, !tbaa !10
  %248 = zext i32 %247 to i64
  %249 = getelementptr inbounds nuw i16, ptr %246, i64 %248
  %250 = load i16, ptr %249, align 2, !tbaa !44
  %251 = zext i16 %250 to i32
  %252 = shl i32 %251, 1
  store i32 %252, ptr %12, align 4, !tbaa !10
  %253 = load i32, ptr %16, align 4, !tbaa !10
  %254 = load i32, ptr %13, align 4, !tbaa !10
  %255 = sub i32 15, %254
  %256 = lshr i32 %253, %255
  %257 = and i32 %256, 1
  %258 = icmp ne i32 %257, 0
  br i1 %258, label %259, label %262

259:                                              ; preds = %245
  %260 = load i32, ptr %12, align 4, !tbaa !10
  %261 = add i32 %260, 1
  store i32 %261, ptr %12, align 4, !tbaa !10
  br label %262

262:                                              ; preds = %259, %245
  br label %263

263:                                              ; preds = %262
  %264 = load i32, ptr %13, align 4, !tbaa !10
  %265 = add i32 %264, 1
  store i32 %265, ptr %13, align 4, !tbaa !10
  br label %210

266:                                              ; preds = %210
  %267 = load i16, ptr %10, align 2, !tbaa !44
  %268 = load ptr, ptr %9, align 8, !tbaa !46
  %269 = load i32, ptr %12, align 4, !tbaa !10
  %270 = zext i32 %269 to i64
  %271 = getelementptr inbounds nuw i16, ptr %268, i64 %270
  store i16 %267, ptr %271, align 2, !tbaa !44
  %272 = load i32, ptr %18, align 4, !tbaa !10
  %273 = load i32, ptr %16, align 4, !tbaa !10
  %274 = add i32 %273, %272
  store i32 %274, ptr %16, align 4, !tbaa !10
  br label %275

275:                                              ; preds = %266, %186
  %276 = load i16, ptr %10, align 2, !tbaa !44
  %277 = add i16 %276, 1
  store i16 %277, ptr %10, align 2, !tbaa !44
  br label %171

278:                                              ; preds = %171
  %279 = load i32, ptr %18, align 4, !tbaa !10
  %280 = lshr i32 %279, 1
  store i32 %280, ptr %18, align 4, !tbaa !10
  br label %281

281:                                              ; preds = %278
  %282 = load i8, ptr %15, align 1, !tbaa !39
  %283 = add i8 %282, 1
  store i8 %283, ptr %15, align 1, !tbaa !39
  br label %166

284:                                              ; preds = %166
  %285 = load i32, ptr %16, align 4, !tbaa !10
  %286 = load i32, ptr %17, align 4, !tbaa !10
  %287 = icmp eq i32 %285, %286
  %288 = select i1 %287, i32 0, i32 1
  store i32 %288, ptr %5, align 4
  store i32 1, ptr %19, align 4
  br label %289

289:                                              ; preds = %284, %191, %112, %77
  call void @llvm.lifetime.end.p0(i64 4, ptr %18) #2
  call void @llvm.lifetime.end.p0(i64 4, ptr %17) #2
  call void @llvm.lifetime.end.p0(i64 4, ptr %16) #2
  call void @llvm.lifetime.end.p0(i64 1, ptr %15) #2
  call void @llvm.lifetime.end.p0(i64 4, ptr %14) #2
  call void @llvm.lifetime.end.p0(i64 4, ptr %13) #2
  call void @llvm.lifetime.end.p0(i64 4, ptr %12) #2
  call void @llvm.lifetime.end.p0(i64 2, ptr %11) #2
  call void @llvm.lifetime.end.p0(i64 2, ptr %10) #2
  %290 = load i32, ptr %5, align 4
  ret i32 %290
}