; Function Attrs: nofree norecurse nosync nounwind memory(argmem: readwrite) uwtable
define internal fastcc range(i32 0, 2) i32 @make_decode_table(i32 noundef range(i32 19, 289) %0, i32 noundef range(i32 6, 10) %1, ptr noundef readonly captures(none) %2, ptr noundef captures(none) %3) unnamed_addr #3 {
  %5 = shl nuw nsw i32 1, %1
  %6 = lshr exact i32 %5, 1
  %7 = trunc nuw nsw i32 %1 to i8
  %8 = trunc nuw nsw i32 %0 to i16
  br label %.preheader144

.preheader144:                                    ; preds = %4, %35
  %9 = phi i32 [ 1, %4 ], [ %38, %35 ]
  %.0157 = phi i32 [ %6, %4 ], [ %36, %35 ]
  %.098156 = phi i32 [ 0, %4 ], [ %.2, %35 ]
  %.0100155 = phi i8 [ 1, %4 ], [ %37, %35 ]
  %10 = shl nuw nsw i32 1, %9
  %11 = and i32 %10, 65535
  %12 = zext nneg i8 %.0100155 to i32
  %13 = sub nsw i32 %1, %12
  br label %14

14:                                               ; preds = %.preheader144, %.loopexit143
  %.199154 = phi i32 [ %.098156, %.preheader144 ], [ %.2, %.loopexit143 ]
  %.0121153 = phi i16 [ 0, %.preheader144 ], [ %33, %.loopexit143 ]
  %15 = zext nneg i16 %.0121153 to i64
  %16 = getelementptr inbounds nuw i8, ptr %2, i64 %15
  %17 = load i8, ptr %16, align 1, !tbaa !32
  %.not138 = icmp eq i8 %17, %.0100155
  br i1 %.not138, label %18, label %.loopexit143

18:                                               ; preds = %14
  %19 = lshr i32 %.199154, %13
  br label %20

20:                                               ; preds = %20, %18
  %.0110 = phi i32 [ 0, %18 ], [ %23, %20 ]
  %.0105 = phi i32 [ %12, %18 ], [ %25, %20 ]
  %.0102 = phi i32 [ %19, %18 ], [ %24, %20 ]
  %21 = shl i32 %.0110, 1
  %22 = and i32 %.0102, 1
  %23 = or disjoint i32 %22, %21
  %24 = lshr i32 %.0102, 1
  %25 = add i32 %.0105, -1
  %.not139 = icmp eq i32 %25, 0
  br i1 %.not139, label %26, label %20

26:                                               ; preds = %20
  %27 = add i32 %.199154, %.0157
  %28 = icmp ugt i32 %27, %5
  br i1 %28, label %.loopexit, label %.preheader178

.preheader178:                                    ; preds = %26, %.preheader178
  %.1111 = phi i32 [ %31, %.preheader178 ], [ %23, %26 ]
  %.1106 = phi i32 [ %32, %.preheader178 ], [ %.0157, %26 ]
  %29 = zext i32 %.1111 to i64
  %30 = getelementptr inbounds nuw i16, ptr %3, i64 %29
  store i16 %.0121153, ptr %30, align 2, !tbaa !36
  %31 = add i32 %.1111, %11
  %32 = add i32 %.1106, -1
  %.not140 = icmp eq i32 %32, 0
  br i1 %.not140, label %.loopexit143, label %.preheader178

.loopexit143:                                     ; preds = %.preheader178, %14
  %.2 = phi i32 [ %.199154, %14 ], [ %27, %.preheader178 ]
  %33 = add nuw nsw i16 %.0121153, 1
  %34 = icmp samesign ult i16 %33, %8
  br i1 %34, label %14, label %35

35:                                               ; preds = %.loopexit143
  %36 = lshr i32 %.0157, 1
  %37 = add nuw nsw i8 %.0100155, 1
  %38 = zext nneg i8 %37 to i32
  %.not.not = icmp samesign ult i8 %.0100155, %7
  br i1 %.not.not, label %.preheader144, label %39

39:                                               ; preds = %35
  %40 = icmp eq i32 %.2, %5
  br i1 %40, label %.loopexit, label %41

41:                                               ; preds = %39
  %42 = and i32 %.2, 65535
  %43 = icmp samesign ugt i32 %5, %42
  br i1 %43, label %.preheader142.preheader, label %.preheader141.preheader

.preheader142.preheader:                          ; preds = %41
  %44 = trunc i32 %.2 to i16
  br label %.preheader142

.preheader142:                                    ; preds = %.preheader142.preheader, %52
  %45 = phi i32 [ %56, %52 ], [ %42, %.preheader142.preheader ]
  %.1122158 = phi i16 [ %55, %52 ], [ %44, %.preheader142.preheader ]
  br label %46

46:                                               ; preds = %.preheader142, %46
  %.2112 = phi i32 [ %49, %46 ], [ 0, %.preheader142 ]
  %.2107 = phi i32 [ %51, %46 ], [ %1, %.preheader142 ]
  %.1103 = phi i32 [ %50, %46 ], [ %45, %.preheader142 ]
  %47 = shl i32 %.2112, 1
  %48 = and i32 %.1103, 1
  %49 = or disjoint i32 %48, %47
  %50 = lshr i32 %.1103, 1
  %51 = add nsw i32 %.2107, -1
  %.not137 = icmp eq i32 %51, 0
  br i1 %.not137, label %52, label %46

52:                                               ; preds = %46
  %53 = zext i32 %49 to i64
  %54 = getelementptr inbounds nuw i16, ptr %3, i64 %53
  store i16 -1, ptr %54, align 2, !tbaa !36
  %55 = add nuw i16 %.1122158, 1
  %56 = zext i16 %55 to i32
  %57 = icmp samesign ugt i32 %5, %56
  br i1 %57, label %.preheader142, label %.preheader141.preheader

.preheader141.preheader:                          ; preds = %52, %41
  %58 = shl nuw nsw i32 65536, %1
  %59 = shl i32 %.2, 16
  %60 = tail call i32 @llvm.umax.i32(i32 %6, i32 %0)
  %61 = trunc nuw nsw i32 %60 to i16
  %62 = add nuw nsw i32 %1, 1
  br label %.preheader141.split.us.preheader

.preheader141.split.us.preheader:                 ; preds = %.split.us, %.preheader141.preheader
  %indvars.iv183 = phi i32 [ %62, %.preheader141.preheader ], [ %indvars.iv.next184, %.split.us ]
  %indvars.iv = phi i32 [ 1, %.preheader141.preheader ], [ %indvars.iv.next, %.split.us ]
  %.1171 = phi i32 [ 32768, %.preheader141.preheader ], [ %100, %.split.us ]
  %.3170 = phi i32 [ %59, %.preheader141.preheader ], [ %.5.us, %.split.us ]
  %.0116169 = phi i16 [ %61, %.preheader141.preheader ], [ %.2118.us, %.split.us ]
  br label %.preheader141.split.us

.preheader141.split.us:                           ; preds = %.preheader141.split.us.preheader, %76
  %.4166.us = phi i32 [ %.5.us, %76 ], [ %.3170, %.preheader141.split.us.preheader ]
  %.1117165.us = phi i16 [ %.2118.us, %76 ], [ %.0116169, %.preheader141.split.us.preheader ]
  %.2123164.us = phi i16 [ %77, %76 ], [ 0, %.preheader141.split.us.preheader ]
  %63 = zext nneg i16 %.2123164.us to i64
  %64 = getelementptr inbounds nuw i8, ptr %2, i64 %63
  %65 = load i8, ptr %64, align 1, !tbaa !32
  %66 = zext i8 %65 to i32
  %.not133.us = icmp eq i32 %indvars.iv183, %66
  br i1 %.not133.us, label %67, label %76

67:                                               ; preds = %.preheader141.split.us
  %.not134.us = icmp ult i32 %.4166.us, %58
  br i1 %.not134.us, label %68, label %.loopexit

68:                                               ; preds = %67
  %69 = lshr i32 %.4166.us, 16
  br label %70

70:                                               ; preds = %70, %68
  %.3113.us = phi i32 [ 0, %68 ], [ %73, %70 ]
  %.3108.us = phi i32 [ %1, %68 ], [ %75, %70 ]
  %.2104.us = phi i32 [ %69, %68 ], [ %74, %70 ]
  %71 = shl i32 %.3113.us, 1
  %72 = and i32 %.2104.us, 1
  %73 = or disjoint i32 %72, %71
  %74 = lshr i32 %.2104.us, 1
  %75 = add nsw i32 %.3108.us, -1
  %.not135.us = icmp eq i32 %75, 0
  br i1 %.not135.us, label %.preheader.us, label %70

76:                                               ; preds = %._crit_edge162.us, %.preheader141.split.us
  %.2118.us = phi i16 [ %.1117165.us, %.preheader141.split.us ], [ %.4120.us, %._crit_edge162.us ]
  %.5.us = phi i32 [ %.4166.us, %.preheader141.split.us ], [ %99, %._crit_edge162.us ]
  %77 = add nuw nsw i16 %.2123164.us, 1
  %78 = icmp samesign ult i16 %77, %8
  br i1 %78, label %.preheader141.split.us, label %.split.us

.preheader.us:                                    ; preds = %70, %92
  %.4109161.us = phi i32 [ %96, %92 ], [ 0, %70 ]
  %.4114160.us = phi i32 [ %spec.select.us, %92 ], [ %73, %70 ]
  %.3119159.us = phi i16 [ %.4120.us, %92 ], [ %.1117165.us, %70 ]
  %79 = zext i32 %.4114160.us to i64
  %80 = getelementptr inbounds nuw i16, ptr %3, i64 %79
  %81 = load i16, ptr %80, align 2, !tbaa !36
  %82 = icmp eq i16 %81, -1
  br i1 %82, label %83, label %.preheader.us._crit_edge

.preheader.us._crit_edge:                         ; preds = %.preheader.us
  %.pre = zext i16 %81 to i32
  %.pre188 = shl nuw nsw i32 %.pre, 1
  br label %92

83:                                               ; preds = %.preheader.us
  %84 = zext i16 %.3119159.us to i32
  %85 = shl nuw nsw i32 %84, 1
  %86 = zext nneg i32 %85 to i64
  %87 = getelementptr inbounds nuw i16, ptr %3, i64 %86
  store i16 -1, ptr %87, align 2, !tbaa !36
  %88 = or disjoint i32 %85, 1
  %89 = zext nneg i32 %88 to i64
  %90 = getelementptr inbounds nuw i16, ptr %3, i64 %89
  store i16 -1, ptr %90, align 2, !tbaa !36
  %91 = add i16 %.3119159.us, 1
  store i16 %.3119159.us, ptr %80, align 2, !tbaa !36
  br label %92

92:                                               ; preds = %.preheader.us._crit_edge, %83
  %.pre-phi189 = phi i32 [ %.pre188, %.preheader.us._crit_edge ], [ %85, %83 ]
  %.4120.us = phi i16 [ %.3119159.us, %.preheader.us._crit_edge ], [ %91, %83 ]
  %93 = sub nuw nsw i32 15, %.4109161.us
  %94 = lshr i32 %.4166.us, %93
  %95 = and i32 %94, 1
  %spec.select.us = or disjoint i32 %.pre-phi189, %95
  %96 = add nuw nsw i32 %.4109161.us, 1
  %exitcond.not = icmp eq i32 %96, %indvars.iv
  br i1 %exitcond.not, label %._crit_edge162.us, label %.preheader.us

._crit_edge162.us:                                ; preds = %92
  %97 = zext nneg i32 %spec.select.us to i64
  %98 = getelementptr inbounds nuw i16, ptr %3, i64 %97
  store i16 %.2123164.us, ptr %98, align 2, !tbaa !36
  %99 = add i32 %.4166.us, %.1171
  br label %76

.split.us:                                        ; preds = %76
  %100 = lshr i32 %.1171, 1
  %indvars.iv.next184 = add nuw nsw i32 %indvars.iv183, 1
  %indvars.iv.next = add nuw nsw i32 %indvars.iv, 1
  %exitcond186.not = icmp eq i32 %indvars.iv.next184, 17
  br i1 %exitcond186.not, label %._crit_edge173, label %.preheader141.split.us.preheader

._crit_edge173:                                   ; preds = %.split.us
  %101 = icmp ne i32 %.5.us, %58
  %102 = zext i1 %101 to i32
  br label %.loopexit

.loopexit:                                        ; preds = %26, %67, %39, %._crit_edge173
  %.0124 = phi i32 [ %102, %._crit_edge173 ], [ 0, %39 ], [ 1, %67 ], [ 1, %26 ]
  ret i32 %.0124
}